target datalayout = "e-m:e-p270:32:32-p271:32:32-p272:64:64-i64:64-i128:128-f80:128-n8:16:32:64-S128"
target triple = "x86_64-pc-linux-gnu"

%struct.xcgroup_t = type { ptr, ptr, ptr, i32, i32, i32 }
%struct.bpf_program = type { i64, i64, ptr }
%struct.task_cg_info_t = type { %struct.xcgroup_t, i32, %struct.bpf_program }

; Function Attrs: nounwind uwtable
define internal i32 @_find_pid_task(ptr noundef %0, ptr noundef %1) #0 {
  %3 = alloca i32, align 4
  %4 = alloca ptr, align 8
  %5 = alloca ptr, align 8
  %6 = alloca ptr, align 8
  %7 = alloca i32, align 4
  %8 = alloca ptr, align 8
  %9 = alloca i32, align 4
  %10 = alloca i8, align 1
  %11 = alloca i32, align 4
  %12 = alloca i32, align 4
  store ptr %0, ptr %4, align 8
  store ptr %1, ptr %5, align 8
  call void @llvm.lifetime.start.p0(i64 8, ptr %6) #10
  %13 = load ptr, ptr %4, align 8
  store ptr %13, ptr %6, align 8
  call void @llvm.lifetime.start.p0(i64 4, ptr %7) #10
  %14 = load ptr, ptr %5, align 8
  %15 = load i32, ptr %14, align 4
  store i32 %15, ptr %7, align 4
  call void @llvm.lifetime.start.p0(i64 8, ptr %8) #10
  store ptr null, ptr %8, align 8
  call void @llvm.lifetime.start.p0(i64 4, ptr %9) #10
  store i32 0, ptr %9, align 4
  call void @llvm.lifetime.start.p0(i64 1, ptr %10) #10
  store i8 0, ptr %10, align 1
  %16 = load ptr, ptr %6, align 8
  %17 = getelementptr inbounds nuw %struct.task_cg_info_t, ptr %16, i32 0, i32 0
  %18 = call i32 @common_cgroup_get_pids(ptr noundef %17, ptr noundef %8, ptr noundef %9)
  %19 = icmp ne i32 %18, 0
  br i1 %19, label %20, label %21

20:                                               ; preds = %2
  store i32 0, ptr %3, align 4
  store i32 1, ptr %11, align 4
  br label %45

21:                                               ; preds = %2
  call void @llvm.lifetime.start.p0(i64 4, ptr %12) #10
  store i32 0, ptr %12, align 4
  br label %22

22:                                               ; preds = %37, %21
  %23 = load i32, ptr %12, align 4
  %24 = load i32, ptr %9, align 4
  %25 = icmp slt i32 %23, %24
  br i1 %25, label %27, label %26

26:                                               ; preds = %22
  store i32 2, ptr %11, align 4
  br label %40

27:                                               ; preds = %22
  %28 = load ptr, ptr %8, align 8
  %29 = load i32, ptr %12, align 4
  %30 = sext i32 %29 to i64
  %31 = getelementptr inbounds i32, ptr %28, i64 %30
  %32 = load i32, ptr %31, align 4
  %33 = load i32, ptr %7, align 4
  %34 = icmp eq i32 %32, %33
  br i1 %34, label %35, label %36

35:                                               ; preds = %27
  store i8 1, ptr %10, align 1
  store i32 2, ptr %11, align 4
  br label %40

36:                                               ; preds = %27
  br label %37

37:                                               ; preds = %36
  %38 = load i32, ptr %12, align 4
  %39 = add nsw i32 %38, 1
  store i32 %39, ptr %12, align 4
  br label %22, !llvm.loop !22

40:                                               ; preds = %35, %26
  call void @llvm.lifetime.end.p0(i64 4, ptr %12) #10
  br label %41

41:                                               ; preds = %40
  call void @slurm_xfree(ptr noundef %8)
  %42 = load i8, ptr %10, align 1, !range !8, !noundef !9
  %43 = trunc i8 %42 to i1
  %44 = zext i1 %43 to i32
  store i32 %44, ptr %3, align 4
  store i32 1, ptr %11, align 4
  br label %45

45:                                               ; preds = %41, %20
  call void @llvm.lifetime.end.p0(i64 1, ptr %10) #10
  call void @llvm.lifetime.end.p0(i64 4, ptr %9) #10
  call void @llvm.lifetime.end.p0(i64 8, ptr %8) #10
  call void @llvm.lifetime.end.p0(i64 4, ptr %7) #10
  call void @llvm.lifetime.end.p0(i64 8, ptr %6) #10
  %46 = load i32, ptr %3, align 4
  ret i32 %46
}