; Function Attrs: nounwind uwtable
define internal range(i32 0, 2) i32 @_find_pid_task(ptr noundef %0, ptr noundef readonly captures(none) %1) #0 {
  %3 = alloca ptr, align 8
  %4 = alloca i32, align 4
  %5 = load i32, ptr %1, align 4
  call void @llvm.lifetime.start.p0(i64 8, ptr nonnull %3) #17
  store ptr null, ptr %3, align 8
  call void @llvm.lifetime.start.p0(i64 4, ptr nonnull %4) #17
  store i32 0, ptr %4, align 4
  %6 = call i32 @common_cgroup_get_pids(ptr noundef %0, ptr noundef nonnull %3, ptr noundef nonnull %4) #17
  %.not = icmp eq i32 %6, 0
  br i1 %.not, label %.preheader, label %15

.preheader:                                       ; preds = %2
  %7 = load i32, ptr %4, align 4
  %8 = icmp sgt i32 %7, 0
  br i1 %8, label %.lr.ph, label %._crit_edge

.lr.ph:                                           ; preds = %.preheader
  %9 = load ptr, ptr %3, align 8
  %wide.trip.count = zext nneg i32 %7 to i64
  br label %11

10:                                               ; preds = %11
  %indvars.iv.next = add nuw nsw i64 %indvars.iv, 1
  %exitcond.not = icmp eq i64 %indvars.iv.next, %wide.trip.count
  br i1 %exitcond.not, label %._crit_edge, label %11, !llvm.loop !27

11:                                               ; preds = %.lr.ph, %10
  %indvars.iv = phi i64 [ 0, %.lr.ph ], [ %indvars.iv.next, %10 ]
  %12 = getelementptr inbounds nuw i32, ptr %9, i64 %indvars.iv
  %13 = load i32, ptr %12, align 4
  %14 = icmp eq i32 %13, %5
  br i1 %14, label %._crit_edge, label %10

._crit_edge:                                      ; preds = %10, %11, %.preheader
  %.lcssa = phi i32 [ 0, %.preheader ], [ 1, %11 ], [ 0, %10 ]
  call void @slurm_xfree(ptr noundef nonnull %3) #17
  br label %15

15:                                               ; preds = %2, %._crit_edge
  %.09 = phi i32 [ %.lcssa, %._crit_edge ], [ 0, %2 ]
  call void @llvm.lifetime.end.p0(i64 4, ptr nonnull %4) #17
  call void @llvm.lifetime.end.p0(i64 8, ptr nonnull %3) #17
  ret i32 %.09
}